target datalayout = "e-m:e-p270:32:32-p271:32:32-p272:64:64-i64:64-i128:128-f80:128-n8:16:32:64-S128"
target triple = "x86_64-pc-linux-gnu"

%"struct.duckdb::LogicalType" = type { i8, i8, %"class.duckdb::shared_ptr.168" }
%"class.duckdb::shared_ptr.168" = type { %"class.std::shared_ptr.169" }
%"class.std::shared_ptr.169" = type { %"class.std::__shared_ptr.170" }
%"class.std::__shared_ptr.170" = type { ptr, %"class.std::__shared_count" }
%"class.std::__shared_count" = type { ptr }
%"class.duckdb::ColumnReader" = type { ptr, ptr, ptr, i64, i8, ptr, ptr, i64, i64, i64, %"class.duckdb::shared_ptr", %"class.duckdb::ResizeableBuffer", i32, %"class.duckdb::unique_ptr.11", %"class.duckdb::unique_ptr.11", %"class.duckdb::DictionaryDecoder", %"class.duckdb::DeltaBinaryPackedDecoder", %"class.duckdb::RLEDecoder", %"class.duckdb::DeltaLengthByteArrayDecoder", %"class.duckdb::DeltaByteArrayDecoder", %"class.duckdb::ByteStreamSplitDecoder", [2 x %"class.duckdb::ResizeableBuffer"] }
%"class.duckdb::shared_ptr" = type { %"class.std::shared_ptr" }
%"class.std::shared_ptr" = type { %"class.std::__shared_ptr" }
%"class.std::__shared_ptr" = type { ptr, %"class.std::__shared_count" }
%"class.duckdb::ResizeableBuffer" = type { %"class.duckdb::ByteBuffer", %"class.duckdb::AllocatedData", i64 }
%"class.duckdb::ByteBuffer" = type { ptr, i64 }
%"class.duckdb::AllocatedData" = type { %"class.duckdb::optional_ptr", ptr, i64 }
%"class.duckdb::optional_ptr" = type { ptr }
%"class.duckdb::unique_ptr.11" = type { %"class.std::unique_ptr.12" }
%"class.std::unique_ptr.12" = type { %"struct.std::__uniq_ptr_data.13" }
%"struct.std::__uniq_ptr_data.13" = type { %"class.std::__uniq_ptr_impl.14" }
%"class.std::__uniq_ptr_impl.14" = type { %"class.std::tuple.15" }
%"class.std::tuple.15" = type { %"struct.std::_Tuple_impl.16" }
%"struct.std::_Tuple_impl.16" = type { %"struct.std::_Head_base.19" }
%"struct.std::_Head_base.19" = type { ptr }
%"class.duckdb::DictionaryDecoder" = type { ptr, ptr, %"class.duckdb::unique_ptr.11", %"struct.duckdb::SelectionVector", %"struct.duckdb::SelectionVector", i64, %"class.duckdb::unique_ptr.24", %"class.duckdb::unique_ptr.33", i64, i8, %"class.std::__cxx11::basic_string" }
%"struct.duckdb::SelectionVector" = type { ptr, %"class.duckdb::shared_ptr.20" }
%"class.duckdb::shared_ptr.20" = type { %"class.std::shared_ptr.21" }
%"class.std::shared_ptr.21" = type { %"class.std::__shared_ptr.22" }
%"class.std::__shared_ptr.22" = type { ptr, %"class.std::__shared_count" }
%"class.duckdb::unique_ptr.24" = type { %"class.std::unique_ptr.25" }
%"class.std::unique_ptr.25" = type { %"struct.std::__uniq_ptr_data.26" }
%"struct.std::__uniq_ptr_data.26" = type { %"class.std::__uniq_ptr_impl.27" }
%"class.std::__uniq_ptr_impl.27" = type { %"class.std::tuple.28" }
%"class.std::tuple.28" = type { %"struct.std::_Tuple_impl.29" }
%"struct.std::_Tuple_impl.29" = type { %"struct.std::_Head_base.32" }
%"struct.std::_Head_base.32" = type { ptr }
%"class.duckdb::unique_ptr.33" = type { %"class.std::unique_ptr.34" }
%"class.std::unique_ptr.34" = type { %"struct.std::__uniq_ptr_data.35" }
%"struct.std::__uniq_ptr_data.35" = type { %"class.std::__uniq_ptr_impl.36" }
%"class.std::__uniq_ptr_impl.36" = type { %"class.std::tuple.37" }
%"class.std::tuple.37" = type { %"struct.std::_Tuple_impl.38" }
%"struct.std::_Tuple_impl.38" = type { %"struct.std::_Head_base.41" }
%"struct.std::_Head_base.41" = type { ptr }
%"class.std::__cxx11::basic_string" = type { %"struct.std::__cxx11::basic_string<char>::_Alloc_hider", i64, %union.anon }
%"struct.std::__cxx11::basic_string<char>::_Alloc_hider" = type { ptr }
%union.anon = type { i64, [8 x i8] }
%"class.duckdb::DeltaBinaryPackedDecoder" = type { ptr, ptr, %"class.duckdb::unique_ptr.42" }
%"class.duckdb::unique_ptr.42" = type { %"class.std::unique_ptr.43" }
%"class.std::unique_ptr.43" = type { %"struct.std::__uniq_ptr_data.44" }
%"struct.std::__uniq_ptr_data.44" = type { %"class.std::__uniq_ptr_impl.45" }
%"class.std::__uniq_ptr_impl.45" = type { %"class.std::tuple.46" }
%"class.std::tuple.46" = type { %"struct.std::_Tuple_impl.47" }
%"struct.std::_Tuple_impl.47" = type { %"struct.std::_Head_base.50" }
%"struct.std::_Head_base.50" = type { ptr }
%"class.duckdb::RLEDecoder" = type { ptr, ptr, %"class.duckdb::unique_ptr.11" }
%"class.duckdb::DeltaLengthByteArrayDecoder" = type { ptr, ptr, i64, i64 }
%"class.duckdb::DeltaByteArrayDecoder" = type { ptr, %"class.duckdb::unique_ptr.24", i64, i64 }
%"class.duckdb::ByteStreamSplitDecoder" = type { ptr, ptr, %"class.duckdb::unique_ptr.51" }
%"class.duckdb::unique_ptr.51" = type { %"class.std::unique_ptr.52" }
%"class.std::unique_ptr.52" = type { %"struct.std::__uniq_ptr_data.53" }
%"struct.std::__uniq_ptr_data.53" = type { %"class.std::__uniq_ptr_impl.54" }
%"class.std::__uniq_ptr_impl.54" = type { %"class.std::tuple.55" }
%"class.std::tuple.55" = type { %"struct.std::_Tuple_impl.56" }
%"struct.std::_Tuple_impl.56" = type { %"struct.std::_Head_base.59" }
%"struct.std::_Head_base.59" = type { ptr }
%"class.duckdb::optional_idx" = type { i64 }
%"struct.duckdb::ParquetColumnSchema" = type { i32, %"class.std::__cxx11::basic_string", %"struct.duckdb::LogicalType", i64, i64, i64, i64, %"class.duckdb::optional_idx", i32, i32, i32, i32, %"class.duckdb::vector.172" }
%"class.duckdb::vector.172" = type { %"class.std::vector.173" }
%"class.std::vector.173" = type { %"struct.std::_Vector_base.174" }
%"struct.std::_Vector_base.174" = type { %"struct.std::_Vector_base<duckdb::ParquetColumnSchema, std::allocator<duckdb::ParquetColumnSchema>>::_Vector_impl" }
%"struct.std::_Vector_base<duckdb::ParquetColumnSchema, std::allocator<duckdb::ParquetColumnSchema>>::_Vector_impl" = type { %"struct.std::_Vector_base<duckdb::ParquetColumnSchema, std::allocator<duckdb::ParquetColumnSchema>>::_Vector_impl_data" }
%"struct.std::_Vector_base<duckdb::ParquetColumnSchema, std::allocator<duckdb::ParquetColumnSchema>>::_Vector_impl_data" = type { ptr, ptr, ptr }

; Function Attrs: inlinehint mustprogress nounwind uwtable
define linkonce_odr noundef i64 @_ZNK6duckdb12ColumnReader9MaxDefineEv(ptr noundef nonnull align 8 dereferenceable(544) %0) #5 comdat align 2 {
  %2 = alloca ptr, align 8
  store ptr %0, ptr %2, align 8, !tbaa !184
  %3 = load ptr, ptr %2, align 8
  %4 = getelementptr inbounds nuw %"class.duckdb::ColumnReader", ptr %3, i32 0, i32 1
  %5 = load ptr, ptr %4, align 8, !tbaa !186
  %6 = getelementptr inbounds nuw %"struct.duckdb::ParquetColumnSchema", ptr %5, i32 0, i32 3
  %7 = load i64, ptr %6, align 8, !tbaa !400
  ret i64 %7
}

; Function Attrs: inlinehint mustprogress nounwind uwtable
define linkonce_odr noundef zeroext i1 @_ZNK6duckdb12ColumnReader10HasDefinesEv(ptr noundef nonnull align 8 dereferenceable(544) %0) #5 comdat align 2 {
  %2 = alloca ptr, align 8
  store ptr %0, ptr %2, align 8, !tbaa !184
  %3 = load ptr, ptr %2, align 8
  %4 = call noundef i64 @_ZNK6duckdb12ColumnReader9MaxDefineEv(ptr noundef nonnull align 8 dereferenceable(544) %3)
  %5 = icmp ugt i64 %4, 0
  ret i1 %5
}

; Function Attrs: mustprogress uwtable
define linkonce_odr void @_ZN6duckdb12ColumnReader20PlainSelectTemplatedINS_8string_tENS_28StringParquetValueConversionEEEvRNS_10ByteBufferEPKhmRNS_6VectorERKNS_15SelectionVectorEm(ptr noundef nonnull align 8 dereferenceable(544) %0, ptr noundef nonnull align 8 dereferenceable(16) %1, ptr noundef %2, i64 noundef %3, ptr noundef nonnull align 8 dereferenceable(104) %4, ptr noundef nonnull align 8 dereferenceable(24) %5, i64 noundef %6) #4 comdat align 2 {
  %8 = alloca ptr, align 8
  %9 = alloca ptr, align 8
  %10 = alloca ptr, align 8
  %11 = alloca i64, align 8
  %12 = alloca ptr, align 8
  %13 = alloca ptr, align 8
  %14 = alloca i64, align 8
  store ptr %0, ptr %8, align 8, !tbaa !184
  store ptr %1, ptr %9, align 8, !tbaa !369
  store ptr %2, ptr %10, align 8, !tbaa !210
  store i64 %3, ptr %11, align 8, !tbaa !206
  store ptr %4, ptr %12, align 8, !tbaa !211
  store ptr %5, ptr %13, align 8, !tbaa !371
  store i64 %6, ptr %14, align 8, !tbaa !206
  %15 = load ptr, ptr %8, align 8
  %16 = call noundef zeroext i1 @_ZNK6duckdb12ColumnReader10HasDefinesEv(ptr noundef nonnull align 8 dereferenceable(544) %15)
  br i1 %16, label %17, label %27

17:                                               ; preds = %7
  %18 = load ptr, ptr %10, align 8, !tbaa !210
  %19 = icmp ne ptr %18, null
  br i1 %19, label %20, label %27

20:                                               ; preds = %17
  %21 = load ptr, ptr %9, align 8, !tbaa !369
  %22 = load ptr, ptr %10, align 8, !tbaa !210
  %23 = load i64, ptr %11, align 8, !tbaa !206
  %24 = load ptr, ptr %12, align 8, !tbaa !211
  %25 = load ptr, ptr %13, align 8, !tbaa !371
  %26 = load i64, ptr %14, align 8, !tbaa !206
  call void @_ZN6duckdb12ColumnReader28PlainSelectTemplatedInternalINS_8string_tENS_28StringParquetValueConversionELb1ELb1EEEvRNS_10ByteBufferEPKhmRNS_6VectorERKNS_15SelectionVectorEm(ptr noundef nonnull align 8 dereferenceable(544) %15, ptr noundef nonnull align 8 dereferenceable(16) %21, ptr noundef %22, i64 noundef %23, ptr noundef nonnull align 8 dereferenceable(104) %24, ptr noundef nonnull align 8 dereferenceable(24) %25, i64 noundef %26)
  br label %34

27:                                               ; preds = %17, %7
  %28 = load ptr, ptr %9, align 8, !tbaa !369
  %29 = load ptr, ptr %10, align 8, !tbaa !210
  %30 = load i64, ptr %11, align 8, !tbaa !206
  %31 = load ptr, ptr %12, align 8, !tbaa !211
  %32 = load ptr, ptr %13, align 8, !tbaa !371
  %33 = load i64, ptr %14, align 8, !tbaa !206
  call void @_ZN6duckdb12ColumnReader28PlainSelectTemplatedInternalINS_8string_tENS_28StringParquetValueConversionELb0ELb1EEEvRNS_10ByteBufferEPKhmRNS_6VectorERKNS_15SelectionVectorEm(ptr noundef nonnull align 8 dereferenceable(544) %15, ptr noundef nonnull align 8 dereferenceable(16) %28, ptr noundef %29, i64 noundef %30, ptr noundef nonnull align 8 dereferenceable(104) %31, ptr noundef nonnull align 8 dereferenceable(24) %32, i64 noundef %33)
  br label %34

34:                                               ; preds = %27, %20
  ret void
}

; Function Attrs: mustprogress uwtable
define void @_ZN6duckdb18StringColumnReader11PlainSelectERNS_10shared_ptrINS_16ResizeableBufferELb1EEEPhmRNS_6VectorERKNS_15SelectionVectorEm(ptr noundef nonnull align 8 dereferenceable(552) %0, ptr noundef nonnull align 8 dereferenceable(16) %1, ptr noundef %2, i64 noundef %3, ptr noundef nonnull align 8 dereferenceable(104) %4, ptr noundef nonnull align 8 dereferenceable(24) %5, i64 noundef %6) unnamed_addr #4 align 2 {
  %8 = alloca ptr, align 8
  %9 = alloca ptr, align 8
  %10 = alloca ptr, align 8
  %11 = alloca i64, align 8
  %12 = alloca ptr, align 8
  %13 = alloca ptr, align 8
  %14 = alloca i64, align 8
  store ptr %0, ptr %8, align 8, !tbaa !354
  store ptr %1, ptr %9, align 8, !tbaa !363
  store ptr %2, ptr %10, align 8, !tbaa !210
  store i64 %3, ptr %11, align 8, !tbaa !206
  store ptr %4, ptr %12, align 8, !tbaa !211
  store ptr %5, ptr %13, align 8, !tbaa !371
  store i64 %6, ptr %14, align 8, !tbaa !206
  %15 = load ptr, ptr %8, align 8
  %16 = load ptr, ptr %12, align 8, !tbaa !211
  %17 = load ptr, ptr %9, align 8, !tbaa !363
  call void @_ZN6duckdb18StringColumnReader14ReferenceBlockERNS_6VectorERNS_10shared_ptrINS_16ResizeableBufferELb1EEE(ptr noundef nonnull align 8 dereferenceable(104) %16, ptr noundef nonnull align 8 dereferenceable(16) %17)
  %18 = load ptr, ptr %9, align 8, !tbaa !363
  %19 = call noundef nonnull align 8 dereferenceable(48) ptr @_ZNK6duckdb10shared_ptrINS_16ResizeableBufferELb1EEdeEv(ptr noundef nonnull align 8 dereferenceable(16) %18)
  %20 = load ptr, ptr %10, align 8, !tbaa !210
  %21 = load i64, ptr %11, align 8, !tbaa !206
  %22 = load ptr, ptr %12, align 8, !tbaa !211
  %23 = load ptr, ptr %13, align 8, !tbaa !371
  %24 = load i64, ptr %14, align 8, !tbaa !206
  call void @_ZN6duckdb12ColumnReader20PlainSelectTemplatedINS_8string_tENS_28StringParquetValueConversionEEEvRNS_10ByteBufferEPKhmRNS_6VectorERKNS_15SelectionVectorEm(ptr noundef nonnull align 8 dereferenceable(544) %15, ptr noundef nonnull align 8 dereferenceable(16) %19, ptr noundef %20, i64 noundef %21, ptr noundef nonnull align 8 dereferenceable(104) %22, ptr noundef nonnull align 8 dereferenceable(24) %23, i64 noundef %24)
  ret void
}