; Function Attrs: mustprogress uwtable
define void @_ZN6duckdb18StringColumnReader11PlainSelectERNS_10shared_ptrINS_16ResizeableBufferELb1EEEPhmRNS_6VectorERKNS_15SelectionVectorEm(ptr noundef nonnull align 8 dereferenceable(552) %0, ptr noundef nonnull align 8 dereferenceable(16) %1, ptr noundef %2, i64 noundef %3, ptr noundef nonnull align 8 dereferenceable(104) %4, ptr noundef nonnull align 8 dereferenceable(24) %5, i64 noundef %6) unnamed_addr #3 align 2 {
  tail call void @_ZN6duckdb18StringColumnReader14ReferenceBlockERNS_6VectorERNS_10shared_ptrINS_16ResizeableBufferELb1EEE(ptr noundef nonnull align 8 dereferenceable(104) %4, ptr noundef nonnull align 8 dereferenceable(16) %1)
  %8 = tail call noundef nonnull align 8 dereferenceable(48) ptr @_ZNK6duckdb10shared_ptrINS_16ResizeableBufferELb1EEdeEv(ptr noundef nonnull align 8 dereferenceable(16) %1)
  %9 = getelementptr inbounds nuw i8, ptr %0, i64 8
  %10 = load ptr, ptr %9, align 8, !tbaa !12
  %11 = getelementptr inbounds nuw i8, ptr %10, i64 64
  %12 = load i64, ptr %11, align 8, !tbaa !312
  %13 = icmp ne i64 %12, 0
  %14 = icmp ne ptr %2, null
  %or.cond.i = and i1 %14, %13
  br i1 %or.cond.i, label %15, label %16

15:                                               ; preds = %7
  tail call void @_ZN6duckdb12ColumnReader28PlainSelectTemplatedInternalINS_8string_tENS_28StringParquetValueConversionELb1ELb1EEEvRNS_10ByteBufferEPKhmRNS_6VectorERKNS_15SelectionVectorEm(ptr noundef nonnull align 8 dereferenceable(544) %0, ptr noundef nonnull align 8 dereferenceable(16) %8, ptr noundef nonnull %2, i64 noundef %3, ptr noundef nonnull align 8 dereferenceable(104) %4, ptr noundef nonnull align 8 dereferenceable(24) %5, i64 noundef %6)
  br label %_ZN6duckdb12ColumnReader20PlainSelectTemplatedINS_8string_tENS_28StringParquetValueConversionEEEvRNS_10ByteBufferEPKhmRNS_6VectorERKNS_15SelectionVectorEm.exit

16:                                               ; preds = %7
  tail call void @_ZN6duckdb12ColumnReader28PlainSelectTemplatedInternalINS_8string_tENS_28StringParquetValueConversionELb0ELb1EEEvRNS_10ByteBufferEPKhmRNS_6VectorERKNS_15SelectionVectorEm(ptr noundef nonnull align 8 dereferenceable(544) %0, ptr noundef nonnull align 8 dereferenceable(16) %8, ptr noundef %2, i64 noundef %3, ptr noundef nonnull align 8 dereferenceable(104) %4, ptr noundef nonnull align 8 dereferenceable(24) %5, i64 noundef %6)
  br label %_ZN6duckdb12ColumnReader20PlainSelectTemplatedINS_8string_tENS_28StringParquetValueConversionEEEvRNS_10ByteBufferEPKhmRNS_6VectorERKNS_15SelectionVectorEm.exit

_ZN6duckdb12ColumnReader20PlainSelectTemplatedINS_8string_tENS_28StringParquetValueConversionEEEvRNS_10ByteBufferEPKhmRNS_6VectorERKNS_15SelectionVectorEm.exit: ; preds = %15, %16
  ret void
}